; Function Attrs: mustprogress uwtable
define void @_ZNK4cvc58internal12SolverEngine22getModelDomainElementsENS0_8TypeNodeE(ptr dead_on_unwind noalias writable sret(%"class.std::vector.503") align 8 %0, ptr noundef nonnull readonly align 8 captures(none) dereferenceable(296) %1, ptr noundef readonly captures(none) %2) local_unnamed_addr #4 align 2 personality ptr @__gxx_personality_v0 {
  %4 = alloca %"class.cvc5::internal::TypeNode", align 8
  %5 = tail call noundef ptr @_ZNK4cvc58internal12SolverEngine17getAvailableModelEPKc(ptr noundef nonnull align 8 dereferenceable(296) %1, ptr noundef nonnull @.str.101)
  %6 = load ptr, ptr %2, align 8, !tbaa !547
  store ptr %6, ptr %4, align 8, !tbaa !547
  %7 = load i64, ptr %6, align 8
  %8 = lshr i64 %7, 40
  %9 = trunc nuw nsw i64 %8 to i32
  %10 = and i32 %9, 1048575
  %11 = icmp samesign ult i32 %10, 1048574
  br i1 %11, label %12, label %17, !prof !551

12:                                               ; preds = %3
  %13 = add i64 %7, 1099511627776
  %14 = and i64 %13, 1152920405095219200
  %15 = and i64 %7, -1152920405095219201
  %16 = or disjoint i64 %14, %15
  store i64 %16, ptr %6, align 8
  br label %_ZN4cvc58internal8TypeNodeC2ERKS1_.exit

17:                                               ; preds = %3
  %18 = icmp eq i32 %10, 1048574
  br i1 %18, label %19, label %_ZN4cvc58internal8TypeNodeC2ERKS1_.exit, !prof !412

19:                                               ; preds = %17
  %20 = or i64 %7, 1152920405095219200
  store i64 %20, ptr %6, align 8
  tail call void @_ZN4cvc58internal4expr9NodeValue20markRefCountMaxedOutEv(ptr noundef nonnull align 8 dereferenceable(24) %6)
  br label %_ZN4cvc58internal8TypeNodeC2ERKS1_.exit

_ZN4cvc58internal8TypeNodeC2ERKS1_.exit:          ; preds = %12, %17, %19
  invoke void @_ZNK4cvc58internal6theory11TheoryModel17getDomainElementsENS0_8TypeNodeE(ptr dead_on_unwind writable sret(%"class.std::vector.503") align 8 %0, ptr noundef nonnull align 8 dereferenceable(968) %5, ptr noundef nonnull %4)
          to label %21 unwind label %35

21:                                               ; preds = %_ZN4cvc58internal8TypeNodeC2ERKS1_.exit
  %22 = load ptr, ptr %4, align 8, !tbaa !547
  %23 = load i64, ptr %22, align 8
  %24 = and i64 %23, 1152920405095219200
  %.not.i.i = icmp eq i64 %24, 1152920405095219200
  br i1 %.not.i.i, label %_ZN4cvc58internal8TypeNodeD2Ev.exit, label %25, !prof !412

25:                                               ; preds = %21
  %26 = add i64 %23, 1152920405095219200
  %27 = and i64 %26, 1152920405095219200
  %28 = and i64 %23, -1152920405095219201
  %29 = or disjoint i64 %27, %28
  store i64 %29, ptr %22, align 8
  %30 = icmp eq i64 %27, 0
  br i1 %30, label %31, label %_ZN4cvc58internal8TypeNodeD2Ev.exit, !prof !412

31:                                               ; preds = %25
  invoke void @_ZN4cvc58internal4expr9NodeValue15markForDeletionEv(ptr noundef nonnull align 8 dereferenceable(24) %22)
          to label %_ZN4cvc58internal8TypeNodeD2Ev.exit unwind label %32

32:                                               ; preds = %31
  %33 = landingpad { ptr, i32 }
          catch ptr null
  %34 = extractvalue { ptr, i32 } %33, 0
  call void @__clang_call_terminate(ptr %34) #35
  unreachable

_ZN4cvc58internal8TypeNodeD2Ev.exit:              ; preds = %21, %25, %31
  ret void

35:                                               ; preds = %_ZN4cvc58internal8TypeNodeC2ERKS1_.exit
  %36 = landingpad { ptr, i32 }
          cleanup
  call void @_ZN4cvc58internal8TypeNodeD2Ev(ptr noundef nonnull align 8 dereferenceable(8) %4) #32
  resume { ptr, i32 } %36
}